; Function Attrs: mustprogress nofree norecurse nosync nounwind willreturn memory(argmem: read) uwtable
define hidden <2 x float> @b2GetMouseJointForce(ptr noundef readonly captures(none) %0, ptr noundef readonly captures(none) %1) local_unnamed_addr #3 {
  %3 = getelementptr inbounds nuw i8, ptr %0, i64 1768
  %4 = load float, ptr %3, align 8, !tbaa !6
  %5 = getelementptr inbounds nuw i8, ptr %1, i64 68
  %6 = load <2 x float>, ptr %5, align 4
  %.sroa.0.0.vec.extract.i = extractelement <2 x float> %6, i64 0
  %7 = fmul float %4, %.sroa.0.0.vec.extract.i
  %.sroa.02.0.vec.insert.i = insertelement <2 x float> poison, float %7, i64 0
  %.sroa.0.4.vec.extract.i = extractelement <2 x float> %6, i64 1
  %8 = fmul float %4, %.sroa.0.4.vec.extract.i
  %.sroa.02.4.vec.insert.i = insertelement <2 x float> %.sroa.02.0.vec.insert.i, float %8, i64 1
  ret <2 x float> %.sroa.02.4.vec.insert.i
}